; Function Attrs: nounwind uwtable
define range(i32 0, 2) i32 @PMIx_Initialized() local_unnamed_addr #1 {
  %1 = tail call i32 @pthread_mutex_lock(ptr noundef nonnull getelementptr inbounds nuw (i8, ptr @pmix_global_lock, i64 128)) #18
  %2 = load volatile i8, ptr getelementptr inbounds nuw (i8, ptr @pmix_global_lock, i64 216), align 8, !tbaa !9, !range !17, !noundef !18
  %3 = trunc nuw i8 %2 to i1
  br i1 %3, label %.lr.ph, label %._crit_edge

.lr.ph:                                           ; preds = %0, %.lr.ph
  %4 = tail call i32 @pthread_cond_wait(ptr noundef nonnull getelementptr inbounds nuw (i8, ptr @pmix_global_lock, i64 168), ptr noundef nonnull getelementptr inbounds nuw (i8, ptr @pmix_global_lock, i64 128)) #18
  %5 = load volatile i8, ptr getelementptr inbounds nuw (i8, ptr @pmix_global_lock, i64 216), align 8, !tbaa !9, !range !17, !noundef !18
  %6 = trunc nuw i8 %5 to i1
  br i1 %6, label %.lr.ph, label %._crit_edge, !llvm.loop !186

._crit_edge:                                      ; preds = %.lr.ph, %0
  fence acquire
  store volatile i8 1, ptr getelementptr inbounds nuw (i8, ptr @pmix_global_lock, i64 216), align 8, !tbaa !9
  %7 = load i32, ptr @pmix_globals, align 8, !tbaa !21
  %8 = icmp sgt i32 %7, 0
  store volatile i8 0, ptr getelementptr inbounds nuw (i8, ptr @pmix_global_lock, i64 216), align 8, !tbaa !9
  fence release
  %9 = tail call i32 @pthread_cond_broadcast(ptr noundef nonnull getelementptr inbounds nuw (i8, ptr @pmix_global_lock, i64 168)) #18
  %10 = tail call i32 @pthread_mutex_unlock(ptr noundef nonnull getelementptr inbounds nuw (i8, ptr @pmix_global_lock, i64 128)) #18
  %. = zext i1 %8 to i32
  ret i32 %.
}